target datalayout = "e-m:e-p270:32:32-p271:32:32-p272:64:64-i64:64-i128:128-f80:128-n8:16:32:64-S128"
target triple = "x86_64-pc-linux-gnu"

%"class.std::__shared_count" = type { ptr }
%"class.pxrInternal_v0_24__pxrReserved__::JsValue" = type { %"class.std::shared_ptr.0" }
%"class.std::shared_ptr.0" = type { %"class.std::__shared_ptr.1" }
%"class.std::__shared_ptr.1" = type { ptr, %"class.std::__shared_count" }
%"class.std::__cxx11::basic_string" = type { %"struct.std::__cxx11::basic_string<char>::_Alloc_hider", i64, %union.anon }
%"struct.std::__cxx11::basic_string<char>::_Alloc_hider" = type { ptr }
%union.anon = type { i64, [8 x i8] }
%"class.std::unique_ptr.10" = type { %"struct.std::__uniq_ptr_data.11" }
%"struct.std::__uniq_ptr_data.11" = type { %"class.std::__uniq_ptr_impl.12" }
%"class.std::__uniq_ptr_impl.12" = type { %"class.std::tuple.13" }
%"class.std::tuple.13" = type { %"struct.std::_Tuple_impl.14" }
%"struct.std::_Tuple_impl.14" = type { %"struct.std::_Head_base.17" }
%"struct.std::_Head_base.17" = type { ptr }
%"struct.pxrInternal_v0_24__pxrReserved__::JsParseError" = type { i32, i32, %"class.std::__cxx11::basic_string" }

@.str.2 = private unnamed_addr constant [46 x i8] c"Error parsing JSON\0Aline: %d, col: %d ->\0A\09%s.\0A\00", align 1

; Function Attrs: mustprogress nounwind uwtable
define linkonce_odr void @_ZNSt10_Head_baseILm1ESt14default_deleteIN32pxrInternal_v0_24__pxrReserved__15TraceCollectionEELb1EEC2Ev(ptr noundef nonnull align 1 dereferenceable(1) %0) unnamed_addr #1 comdat align 2 {
  %2 = alloca ptr, align 8
  store ptr %0, ptr %2, align 8
  ret void
}

; Function Attrs: mustprogress nounwind uwtable
define linkonce_odr void @_ZNSt10_Head_baseILm0EPN32pxrInternal_v0_24__pxrReserved__15TraceCollectionELb0EEC2Ev(ptr noundef nonnull align 8 dereferenceable(8) %0) unnamed_addr #1 comdat align 2 {
  %2 = alloca ptr, align 8
  store ptr %0, ptr %2, align 8
  %3 = load ptr, ptr %2, align 8
  %4 = getelementptr inbounds nuw %"struct.std::_Head_base.17", ptr %3, i32 0, i32 0
  store ptr null, ptr %4, align 8
  ret void
}

; Function Attrs: mustprogress uwtable
define linkonce_odr void @_ZNSt11_Tuple_implILm1EJSt14default_deleteIN32pxrInternal_v0_24__pxrReserved__15TraceCollectionEEEEC2Ev(ptr noundef nonnull align 1 dereferenceable(1) %0) unnamed_addr #0 comdat align 2 {
  %2 = alloca ptr, align 8
  store ptr %0, ptr %2, align 8
  %3 = load ptr, ptr %2, align 8
  call void @_ZNSt10_Head_baseILm1ESt14default_deleteIN32pxrInternal_v0_24__pxrReserved__15TraceCollectionEELb1EEC2Ev(ptr noundef nonnull align 1 dereferenceable(1) %3)
  ret void
}

; Function Attrs: noreturn nounwind uwtable
define linkonce_odr hidden void @__clang_call_terminate(ptr noundef %0) #4 comdat {
  %2 = call ptr @__cxa_begin_catch(ptr %0) #10
  call void @_ZSt9terminatev() #11
  unreachable
}

; Function Attrs: mustprogress uwtable
define linkonce_odr void @_ZNSt11_Tuple_implILm0EJPN32pxrInternal_v0_24__pxrReserved__15TraceCollectionESt14default_deleteIS1_EEEC2Ev(ptr noundef nonnull align 8 dereferenceable(8) %0) unnamed_addr #0 comdat align 2 {
  %2 = alloca ptr, align 8
  store ptr %0, ptr %2, align 8
  %3 = load ptr, ptr %2, align 8
  call void @_ZNSt11_Tuple_implILm1EJSt14default_deleteIN32pxrInternal_v0_24__pxrReserved__15TraceCollectionEEEEC2Ev(ptr noundef nonnull align 1 dereferenceable(1) %3)
  call void @_ZNSt10_Head_baseILm0EPN32pxrInternal_v0_24__pxrReserved__15TraceCollectionELb0EEC2Ev(ptr noundef nonnull align 8 dereferenceable(8) %3)
  ret void
}

; Function Attrs: mustprogress nounwind uwtable
define linkonce_odr void @_ZNSt5tupleIJPN32pxrInternal_v0_24__pxrReserved__15TraceCollectionESt14default_deleteIS1_EEEC2ILb1ETnNSt9enable_ifIXclsr17_TupleConstraintsIXT_ES2_S4_EE37__is_implicitly_default_constructibleEEbE4typeELb1EEEv(ptr noundef nonnull align 8 dereferenceable(8) %0) unnamed_addr #1 comdat align 2 personality ptr @__gxx_personality_v0 {
  %2 = alloca ptr, align 8
  store ptr %0, ptr %2, align 8
  %3 = load ptr, ptr %2, align 8
  invoke void @_ZNSt11_Tuple_implILm0EJPN32pxrInternal_v0_24__pxrReserved__15TraceCollectionESt14default_deleteIS1_EEEC2Ev(ptr noundef nonnull align 8 dereferenceable(8) %3)
          to label %4 unwind label %5

4:                                                ; preds = %1
  ret void

5:                                                ; preds = %1
  %6 = landingpad { ptr, i32 }
          catch ptr null
  %7 = extractvalue { ptr, i32 } %6, 0
  call void @__clang_call_terminate(ptr %7) #11
  unreachable
}

; Function Attrs: mustprogress nounwind uwtable
define linkonce_odr void @_ZNSt15__uniq_ptr_implIN32pxrInternal_v0_24__pxrReserved__15TraceCollectionESt14default_deleteIS1_EEC2Ev(ptr noundef nonnull align 8 dereferenceable(8) %0) unnamed_addr #1 comdat align 2 {
  %2 = alloca ptr, align 8
  store ptr %0, ptr %2, align 8
  %3 = load ptr, ptr %2, align 8
  %4 = getelementptr inbounds nuw %"class.std::__uniq_ptr_impl.12", ptr %3, i32 0, i32 0
  call void @_ZNSt5tupleIJPN32pxrInternal_v0_24__pxrReserved__15TraceCollectionESt14default_deleteIS1_EEEC2ILb1ETnNSt9enable_ifIXclsr17_TupleConstraintsIXT_ES2_S4_EE37__is_implicitly_default_constructibleEEbE4typeELb1EEEv(ptr noundef nonnull align 8 dereferenceable(8) %4) #10
  ret void
}

; Function Attrs: mustprogress nounwind uwtable
define linkonce_odr void @_ZNSt15__uniq_ptr_dataIN32pxrInternal_v0_24__pxrReserved__15TraceCollectionESt14default_deleteIS1_ELb1ELb1EEC2Ev(ptr noundef nonnull align 8 dereferenceable(8) %0) unnamed_addr #1 comdat align 2 {
  %2 = alloca ptr, align 8
  store ptr %0, ptr %2, align 8
  %3 = load ptr, ptr %2, align 8
  call void @_ZNSt15__uniq_ptr_implIN32pxrInternal_v0_24__pxrReserved__15TraceCollectionESt14default_deleteIS1_EEC2Ev(ptr noundef nonnull align 8 dereferenceable(8) %3) #10
  ret void
}

; Function Attrs: mustprogress nounwind uwtable
define linkonce_odr void @_ZN32pxrInternal_v0_24__pxrReserved__12JsParseErrorD2Ev(ptr noundef nonnull align 8 dereferenceable(40) %0) unnamed_addr #1 comdat align 2 {
  %2 = alloca ptr, align 8
  store ptr %0, ptr %2, align 8
  %3 = load ptr, ptr %2, align 8
  %4 = getelementptr inbounds nuw %"struct.pxrInternal_v0_24__pxrReserved__::JsParseError", ptr %3, i32 0, i32 2
  call void @_ZNSt7__cxx1112basic_stringIcSt11char_traitsIcESaIcEED1Ev(ptr noundef nonnull align 8 dereferenceable(32) %4) #10
  ret void
}

; Function Attrs: mustprogress nounwind uwtable
define linkonce_odr void @_ZNSt10unique_ptrIN32pxrInternal_v0_24__pxrReserved__15TraceCollectionESt14default_deleteIS1_EEC2IS3_vEEDn(ptr noundef nonnull align 8 dereferenceable(8) %0, ptr %1) unnamed_addr #1 comdat align 2 {
  %3 = alloca ptr, align 8
  %4 = alloca ptr, align 8
  store ptr %0, ptr %3, align 8
  store ptr %1, ptr %4, align 8
  %5 = load ptr, ptr %3, align 8
  %6 = getelementptr inbounds nuw %"class.std::unique_ptr.10", ptr %5, i32 0, i32 0
  call void @llvm.memset.p0.i64(ptr align 8 %6, i8 0, i64 8, i1 false)
  call void @_ZNSt15__uniq_ptr_dataIN32pxrInternal_v0_24__pxrReserved__15TraceCollectionESt14default_deleteIS1_ELb1ELb1EEC2Ev(ptr noundef nonnull align 8 dereferenceable(8) %6) #10
  ret void
}

; Function Attrs: mustprogress nounwind uwtable
define linkonce_odr void @_ZN32pxrInternal_v0_24__pxrReserved__12JsParseErrorC2Ev(ptr noundef nonnull align 8 dereferenceable(40) %0) unnamed_addr #1 comdat align 2 {
  %2 = alloca ptr, align 8
  store ptr %0, ptr %2, align 8
  %3 = load ptr, ptr %2, align 8
  %4 = getelementptr inbounds nuw %"struct.pxrInternal_v0_24__pxrReserved__::JsParseError", ptr %3, i32 0, i32 0
  store i32 0, ptr %4, align 8
  %5 = getelementptr inbounds nuw %"struct.pxrInternal_v0_24__pxrReserved__::JsParseError", ptr %3, i32 0, i32 1
  store i32 0, ptr %5, align 4
  %6 = getelementptr inbounds nuw %"struct.pxrInternal_v0_24__pxrReserved__::JsParseError", ptr %3, i32 0, i32 2
  call void @_ZNSt7__cxx1112basic_stringIcSt11char_traitsIcESaIcEEC1Ev(ptr noundef nonnull align 8 dereferenceable(32) %6) #10
  ret void
}

; Function Attrs: mustprogress uwtable
define void @_ZN32pxrInternal_v0_24__pxrReserved__18TraceSerialization4ReadERSiPNSt7__cxx1112basic_stringIcSt11char_traitsIcESaIcEEE(ptr dead_on_unwind noalias writable sret(%"class.std::unique_ptr.10") align 8 %0, ptr noundef nonnull align 8 dereferenceable(16) %1, ptr noundef %2) #0 align 2 personality ptr @__gxx_personality_v0 {
  %4 = alloca ptr, align 8
  %5 = alloca ptr, align 8
  %6 = alloca ptr, align 8
  %7 = alloca %"struct.pxrInternal_v0_24__pxrReserved__::JsParseError", align 8
  %8 = alloca %"class.pxrInternal_v0_24__pxrReserved__::JsValue", align 8
  %9 = alloca ptr, align 8
  %10 = alloca i32, align 4
  %11 = alloca %"class.std::__cxx11::basic_string", align 8
  %12 = alloca i32, align 4
  store ptr %0, ptr %4, align 8
  store ptr %1, ptr %5, align 8
  store ptr %2, ptr %6, align 8
  call void @_ZN32pxrInternal_v0_24__pxrReserved__12JsParseErrorC2Ev(ptr noundef nonnull align 8 dereferenceable(40) %7)
  %13 = load ptr, ptr %5, align 8
  invoke void @_ZN32pxrInternal_v0_24__pxrReserved__13JsParseStreamERSiPNS_12JsParseErrorE(ptr dead_on_unwind writable sret(%"class.pxrInternal_v0_24__pxrReserved__::JsValue") align 8 %8, ptr noundef nonnull align 8 dereferenceable(16) %13, ptr noundef %7)
          to label %14 unwind label %30

14:                                               ; preds = %3
  %15 = invoke noundef zeroext i1 @_ZNK32pxrInternal_v0_24__pxrReserved__7JsValue6IsNullEv(ptr noundef nonnull align 8 dereferenceable(16) %8)
          to label %16 unwind label %34

16:                                               ; preds = %14
  br i1 %15, label %17, label %39

17:                                               ; preds = %16
  %18 = load ptr, ptr %6, align 8
  %19 = icmp ne ptr %18, null
  br i1 %19, label %20, label %38

20:                                               ; preds = %17
  %21 = getelementptr inbounds nuw %"struct.pxrInternal_v0_24__pxrReserved__::JsParseError", ptr %7, i32 0, i32 0
  %22 = load i32, ptr %21, align 8
  %23 = getelementptr inbounds nuw %"struct.pxrInternal_v0_24__pxrReserved__::JsParseError", ptr %7, i32 0, i32 1
  %24 = load i32, ptr %23, align 4
  %25 = getelementptr inbounds nuw %"struct.pxrInternal_v0_24__pxrReserved__::JsParseError", ptr %7, i32 0, i32 2
  %26 = call noundef ptr @_ZNKSt7__cxx1112basic_stringIcSt11char_traitsIcESaIcEE5c_strEv(ptr noundef nonnull align 8 dereferenceable(32) %25) #10
  invoke void (ptr, ptr, ...) @_ZN32pxrInternal_v0_24__pxrReserved__14TfStringPrintfB5cxx11EPKcz(ptr dead_on_unwind writable sret(%"class.std::__cxx11::basic_string") align 8 %11, ptr noundef @.str.2, i32 noundef %22, i32 noundef %24, ptr noundef %26)
          to label %27 unwind label %34

27:                                               ; preds = %20
  %28 = load ptr, ptr %6, align 8
  %29 = call noundef nonnull align 8 dereferenceable(32) ptr @_ZNSt7__cxx1112basic_stringIcSt11char_traitsIcESaIcEEaSEOS4_(ptr noundef nonnull align 8 dereferenceable(32) %28, ptr noundef nonnull align 8 dereferenceable(32) %11) #10
  call void @_ZNSt7__cxx1112basic_stringIcSt11char_traitsIcESaIcEED1Ev(ptr noundef nonnull align 8 dereferenceable(32) %11) #10
  br label %38

30:                                               ; preds = %3
  %31 = landingpad { ptr, i32 }
          cleanup
  %32 = extractvalue { ptr, i32 } %31, 0
  store ptr %32, ptr %9, align 8
  %33 = extractvalue { ptr, i32 } %31, 1
  store i32 %33, ptr %10, align 4
  br label %42

34:                                               ; preds = %39, %20, %14
  %35 = landingpad { ptr, i32 }
          cleanup
  %36 = extractvalue { ptr, i32 } %35, 0
  store ptr %36, ptr %9, align 8
  %37 = extractvalue { ptr, i32 } %35, 1
  store i32 %37, ptr %10, align 4
  call void @_ZN32pxrInternal_v0_24__pxrReserved__7JsValueD2Ev(ptr noundef nonnull align 8 dereferenceable(16) %8) #10
  br label %42

38:                                               ; preds = %27, %17
  call void @_ZNSt10unique_ptrIN32pxrInternal_v0_24__pxrReserved__15TraceCollectionESt14default_deleteIS1_EEC2IS3_vEEDn(ptr noundef nonnull align 8 dereferenceable(8) %0, ptr null) #10
  store i32 1, ptr %12, align 4
  br label %41

39:                                               ; preds = %16
  invoke void @_ZN32pxrInternal_v0_24__pxrReserved__23Trace_JSONSerialization18CollectionFromJSONERKNS_7JsValueE(ptr dead_on_unwind writable sret(%"class.std::unique_ptr.10") align 8 %0, ptr noundef nonnull align 8 dereferenceable(16) %8)
          to label %40 unwind label %34

40:                                               ; preds = %39
  store i32 1, ptr %12, align 4
  br label %41

41:                                               ; preds = %40, %38
  call void @_ZN32pxrInternal_v0_24__pxrReserved__7JsValueD2Ev(ptr noundef nonnull align 8 dereferenceable(16) %8) #10
  call void @_ZN32pxrInternal_v0_24__pxrReserved__12JsParseErrorD2Ev(ptr noundef nonnull align 8 dereferenceable(40) %7) #10
  ret void

42:                                               ; preds = %34, %30
  call void @_ZN32pxrInternal_v0_24__pxrReserved__12JsParseErrorD2Ev(ptr noundef nonnull align 8 dereferenceable(40) %7) #10
  br label %43

43:                                               ; preds = %42
  %44 = load ptr, ptr %9, align 8
  %45 = load i32, ptr %10, align 4
  %46 = insertvalue { ptr, i32 } poison, ptr %44, 0
  %47 = insertvalue { ptr, i32 } %46, i32 %45, 1
  resume { ptr, i32 } %47
}