; Function Attrs: mustprogress uwtable
define void @_ZN32pxrInternal_v0_24__pxrReserved__18TraceSerialization4ReadERSiPNSt7__cxx1112basic_stringIcSt11char_traitsIcESaIcEEE(ptr dead_on_unwind noalias writable sret(%"class.std::unique_ptr.10") align 8 %0, ptr noundef nonnull align 8 dereferenceable(16) %1, ptr noundef %2) local_unnamed_addr #0 align 2 personality ptr @__gxx_personality_v0 {
  %4 = alloca %"struct.pxrInternal_v0_24__pxrReserved__::JsParseError", align 8
  %5 = alloca %"class.pxrInternal_v0_24__pxrReserved__::JsValue", align 8
  %6 = alloca %"class.std::__cxx11::basic_string", align 8
  store i32 0, ptr %4, align 8
  %7 = getelementptr inbounds nuw i8, ptr %4, i64 4
  store i32 0, ptr %7, align 4
  %8 = getelementptr inbounds nuw i8, ptr %4, i64 8
  call void @_ZNSt7__cxx1112basic_stringIcSt11char_traitsIcESaIcEEC1Ev(ptr noundef nonnull align 8 dereferenceable(32) %8) #8
  invoke void @_ZN32pxrInternal_v0_24__pxrReserved__13JsParseStreamERSiPNS_12JsParseErrorE(ptr dead_on_unwind nonnull writable sret(%"class.pxrInternal_v0_24__pxrReserved__::JsValue") align 8 %5, ptr noundef nonnull align 8 dereferenceable(16) %1, ptr noundef nonnull %4)
          to label %9 unwind label %19

9:                                                ; preds = %3
  %10 = invoke noundef zeroext i1 @_ZNK32pxrInternal_v0_24__pxrReserved__7JsValue6IsNullEv(ptr noundef nonnull align 8 dereferenceable(16) %5)
          to label %11 unwind label %21

11:                                               ; preds = %9
  br i1 %10, label %12, label %24

12:                                               ; preds = %11
  %.not = icmp eq ptr %2, null
  br i1 %.not, label %23, label %13

13:                                               ; preds = %12
  %14 = load i32, ptr %4, align 8
  %15 = load i32, ptr %7, align 4
  %16 = call noundef ptr @_ZNKSt7__cxx1112basic_stringIcSt11char_traitsIcESaIcEE5c_strEv(ptr noundef nonnull align 8 dereferenceable(32) %8) #8
  invoke void (ptr, ptr, ...) @_ZN32pxrInternal_v0_24__pxrReserved__14TfStringPrintfB5cxx11EPKcz(ptr dead_on_unwind nonnull writable sret(%"class.std::__cxx11::basic_string") align 8 %6, ptr noundef nonnull @.str.2, i32 noundef %14, i32 noundef %15, ptr noundef %16)
          to label %17 unwind label %21

17:                                               ; preds = %13
  %18 = call noundef nonnull align 8 dereferenceable(32) ptr @_ZNSt7__cxx1112basic_stringIcSt11char_traitsIcESaIcEEaSEOS4_(ptr noundef nonnull align 8 dereferenceable(32) %2, ptr noundef nonnull align 8 dereferenceable(32) %6) #8
  call void @_ZNSt7__cxx1112basic_stringIcSt11char_traitsIcESaIcEED1Ev(ptr noundef nonnull align 8 dereferenceable(32) %6) #8
  br label %23

19:                                               ; preds = %3
  %20 = landingpad { ptr, i32 }
          cleanup
  br label %62

21:                                               ; preds = %24, %13, %9
  %22 = landingpad { ptr, i32 }
          cleanup
  call void @_ZN32pxrInternal_v0_24__pxrReserved__7JsValueD2Ev(ptr noundef nonnull align 8 dereferenceable(16) %5) #8
  br label %62

23:                                               ; preds = %17, %12
  store ptr null, ptr %0, align 8
  br label %25

24:                                               ; preds = %11
  invoke void @_ZN32pxrInternal_v0_24__pxrReserved__23Trace_JSONSerialization18CollectionFromJSONERKNS_7JsValueE(ptr dead_on_unwind writable sret(%"class.std::unique_ptr.10") align 8 %0, ptr noundef nonnull align 8 dereferenceable(16) %5)
          to label %25 unwind label %21

25:                                               ; preds = %24, %23
  %26 = getelementptr inbounds nuw i8, ptr %5, i64 8
  %27 = load ptr, ptr %26, align 8
  %.not.i.i.i.i = icmp eq ptr %27, null
  br i1 %.not.i.i.i.i, label %_ZN32pxrInternal_v0_24__pxrReserved__7JsValueD2Ev.exit, label %28

28:                                               ; preds = %25
  %29 = getelementptr inbounds nuw i8, ptr %27, i64 8
  %30 = load atomic i64, ptr %29 acquire, align 8
  %31 = icmp eq i64 %30, 4294967297
  %32 = trunc i64 %30 to i32
  br i1 %31, label %33, label %38

33:                                               ; preds = %28
  store i32 0, ptr %29, align 8
  %34 = getelementptr inbounds nuw i8, ptr %27, i64 12
  store i32 0, ptr %34, align 4
  %35 = load ptr, ptr %27, align 8
  %36 = getelementptr inbounds i8, ptr %35, i64 16
  %37 = load ptr, ptr %36, align 8
  call void %37(ptr noundef nonnull align 8 dereferenceable(16) %27) #8
  br label %_ZNSt16_Sp_counted_baseILN9__gnu_cxx12_Lock_policyE2EE24_M_release_last_use_coldEv.exit.sink.split.i.i.i.i.i

38:                                               ; preds = %28
  %39 = load i8, ptr @__libc_single_threaded, align 1
  %.not.i.i.i.i.i = icmp eq i8 %39, 0
  br i1 %.not.i.i.i.i.i, label %42, label %40

40:                                               ; preds = %38
  %41 = add nsw i32 %32, -1
  store i32 %41, ptr %29, align 4
  br label %44

42:                                               ; preds = %38
  %43 = atomicrmw volatile add ptr %29, i32 -1 acq_rel, align 4
  br label %44

44:                                               ; preds = %42, %40
  %.0.i.i.i.i.i = phi i32 [ %32, %40 ], [ %43, %42 ]
  %45 = icmp eq i32 %.0.i.i.i.i.i, 1
  br i1 %45, label %46, label %_ZN32pxrInternal_v0_24__pxrReserved__7JsValueD2Ev.exit

46:                                               ; preds = %44
  %47 = load ptr, ptr %27, align 8
  %48 = getelementptr inbounds i8, ptr %47, i64 16
  %49 = load ptr, ptr %48, align 8
  call void %49(ptr noundef nonnull align 8 dereferenceable(16) %27) #8
  %50 = getelementptr inbounds nuw i8, ptr %27, i64 12
  %51 = load i8, ptr @__libc_single_threaded, align 1
  %.not.i.i.i.i.i.i.i = icmp eq i8 %51, 0
  br i1 %.not.i.i.i.i.i.i.i, label %55, label %52

52:                                               ; preds = %46
  %53 = load i32, ptr %50, align 4
  %54 = add nsw i32 %53, -1
  store i32 %54, ptr %50, align 4
  br label %57

55:                                               ; preds = %46
  %56 = atomicrmw volatile add ptr %50, i32 -1 acq_rel, align 4
  br label %57

57:                                               ; preds = %55, %52
  %.0.i.i.i.i.i.i.i = phi i32 [ %53, %52 ], [ %56, %55 ]
  %58 = icmp eq i32 %.0.i.i.i.i.i.i.i, 1
  br i1 %58, label %_ZNSt16_Sp_counted_baseILN9__gnu_cxx12_Lock_policyE2EE24_M_release_last_use_coldEv.exit.sink.split.i.i.i.i.i, label %_ZN32pxrInternal_v0_24__pxrReserved__7JsValueD2Ev.exit

_ZNSt16_Sp_counted_baseILN9__gnu_cxx12_Lock_policyE2EE24_M_release_last_use_coldEv.exit.sink.split.i.i.i.i.i: ; preds = %57, %33
  %59 = load ptr, ptr %27, align 8
  %60 = getelementptr inbounds i8, ptr %59, i64 24
  %61 = load ptr, ptr %60, align 8
  call void %61(ptr noundef nonnull align 8 dereferenceable(16) %27) #8
  br label %_ZN32pxrInternal_v0_24__pxrReserved__7JsValueD2Ev.exit

_ZN32pxrInternal_v0_24__pxrReserved__7JsValueD2Ev.exit: ; preds = %25, %44, %57, %_ZNSt16_Sp_counted_baseILN9__gnu_cxx12_Lock_policyE2EE24_M_release_last_use_coldEv.exit.sink.split.i.i.i.i.i
  call void @_ZNSt7__cxx1112basic_stringIcSt11char_traitsIcESaIcEED1Ev(ptr noundef nonnull align 8 dereferenceable(32) %8) #8
  ret void

62:                                               ; preds = %21, %19
  %.pn = phi { ptr, i32 } [ %22, %21 ], [ %20, %19 ]
  call void @_ZNSt7__cxx1112basic_stringIcSt11char_traitsIcESaIcEED1Ev(ptr noundef nonnull align 8 dereferenceable(32) %8) #8
  resume { ptr, i32 } %.pn
}